; Function Attrs: nofree norecurse nosync nounwind memory(argmem: read) uwtable
define i32 @ff_idet_filter_line_c(ptr noundef readonly captures(none) %0, ptr noundef readonly captures(none) %1, ptr noundef readonly captures(none) %2, i32 noundef %3) #0 {
  %5 = icmp sgt i32 %3, 0
  br i1 %5, label %.lr.ph, label %._crit_edge

.lr.ph:                                           ; preds = %4, %.lr.ph
  %.018 = phi ptr [ %6, %.lr.ph ], [ %0, %4 ]
  %.01017 = phi i32 [ %19, %.lr.ph ], [ 0, %4 ]
  %.01116 = phi i32 [ %20, %.lr.ph ], [ 0, %4 ]
  %.01215 = phi ptr [ %13, %.lr.ph ], [ %1, %4 ]
  %.01314 = phi ptr [ %9, %.lr.ph ], [ %2, %4 ]
  %6 = getelementptr inbounds nuw i8, ptr %.018, i64 1
  %7 = load i8, ptr %.018, align 1, !tbaa !4
  %8 = zext i8 %7 to i32
  %9 = getelementptr inbounds nuw i8, ptr %.01314, i64 1
  %10 = load i8, ptr %.01314, align 1, !tbaa !4
  %11 = zext i8 %10 to i32
  %12 = add nuw nsw i32 %11, %8
  %13 = getelementptr inbounds nuw i8, ptr %.01215, i64 1
  %14 = load i8, ptr %.01215, align 1, !tbaa !4
  %15 = zext i8 %14 to i32
  %16 = shl nuw nsw i32 %15, 1
  %17 = sub nsw i32 %12, %16
  %18 = tail call i32 @llvm.abs.i32(i32 %17, i1 true)
  %19 = add nuw nsw i32 %18, %.01017
  %20 = add nuw nsw i32 %.01116, 1
  %exitcond.not = icmp eq i32 %20, %3
  br i1 %exitcond.not, label %._crit_edge, label %.lr.ph, !llvm.loop !7

._crit_edge:                                      ; preds = %.lr.ph, %4
  %.010.lcssa = phi i32 [ 0, %4 ], [ %19, %.lr.ph ]
  ret i32 %.010.lcssa
}